; Function Attrs: nounwind sspstrong uwtable
define hidden i64 @rb_rational_uminus(i64 noundef %0) #0 {
  %2 = inttoptr i64 %0 to ptr
  %3 = icmp eq i64 %0, 0
  %4 = and i64 %0, 7
  %5 = icmp ne i64 %4, 0
  %6 = or i1 %3, %5
  br i1 %6, label %9, label %7

7:                                                ; preds = %1
  %8 = getelementptr inbounds nuw i8, ptr %2, i64 8
  br label %rb_class_of.exit

9:                                                ; preds = %1
  switch i64 %0, label %12 [
    i64 0, label %rb_class_of.exit
    i64 4, label %10
    i64 20, label %11
  ]

10:                                               ; preds = %9
  br label %rb_class_of.exit

11:                                               ; preds = %9
  br label %rb_class_of.exit

12:                                               ; preds = %9
  %13 = and i64 %0, 1
  %.not.i = icmp eq i64 %13, 0
  br i1 %.not.i, label %14, label %rb_class_of.exit

14:                                               ; preds = %12
  %15 = and i64 %0, 254
  %16 = icmp eq i64 %15, 12
  %spec.select.i = select i1 %16, ptr @rb_cSymbol, ptr @rb_cFloat
  br label %rb_class_of.exit

rb_class_of.exit:                                 ; preds = %7, %9, %10, %11, %12, %14
  %.0.in.i = phi ptr [ @rb_cNilClass, %10 ], [ @rb_cTrueClass, %11 ], [ %8, %7 ], [ @rb_cFalseClass, %9 ], [ @rb_cInteger, %12 ], [ %spec.select.i, %14 ]
  %.0.i = load i64, ptr %.0.in.i, align 8, !tbaa !18
  %17 = getelementptr inbounds nuw i8, ptr %2, i64 16
  %18 = load i64, ptr %17, align 8, !tbaa !19
  %19 = tail call i64 @rb_int_uminus(i64 noundef %18) #17
  %20 = getelementptr inbounds nuw i8, ptr %2, i64 24
  %21 = load i64, ptr %20, align 8, !tbaa !21
  %22 = tail call fastcc i64 @nurat_s_canonicalize_internal(i64 noundef %.0.i, i64 noundef %19, i64 noundef %21)
  ret i64 %22
}